(dp1
S'cutoff'
p2
F1
sS'valid_sentences'
p3
S'Data/vld.word.pkl'
p4
sS'timeStop'
p5
I10
sS'seqlen'
p6
I50
sS'qdim'
p7
I512
sS'patience'
p8
I5
sS'prefix'
p9
S'new_34_'
p10
sS'seed'
p11
I1234
sS'sort_k_batches'
p12
I10
sS'unk_sym'
p13
I0
sS'trainFreq'
p14
I10
sS'rank_n_activ'
p15
S'lambda x: x'
p16
sS'deep_out'
p17
I00
sS'lr'
p18
F0.0001
sS'idim'
p19
I70
sS'n_samples'
p20
I10
sS'maxout_out'
p21
I01
sS'loopIters'
p22
I1000
sS'rankdim'
p23
I256
sS'model_id'
p24
S'1575133143.41'
p25
sS'validFreq'
p26
I500
sS'dictionary'
p27
S'Data/trn.dict.pkl'
p28
sS'minerr'
p29
I-1
sS'end_sym_sent'
p30
S'</s>'
p31
sS'oov'
p32
S'<unk>'
p33
sS'updater'
p34
S'adam'
p35
sS'bs'
p36
I100
sS'start_sym_sent'
p37
S'<s>'
p38
sS'train_sentences'
p39
S'Data/trn.word.pkl'
p40
sS'eos_sym'
p41
I2
sS'level'
p42
S'DEBUG'
p43
sS'rec_activation'
p44
S'lambda x: T.tanh(x)'
p45
sS'step_type'
p46
S'gated'
p47
sS'initialize_from_pretrained_word_embeddings'
p48
I00
sS'max_iters'
p49
I10
sS'save_dir'
p50
S'model/'
p51
sS'cost_threshold'
p52
F1.0029999999999999
sS'sos_sym'
p53
I1
s.